target datalayout = "e-m:e-p270:32:32-p271:32:32-p272:64:64-i64:64-i128:128-f80:128-n8:16:32:64-S128"
target triple = "x86_64-pc-linux-gnu"

; Function Attrs: nounwind uwtable
define internal i64 @strip(ptr noundef %0, i32 noundef %1) #0 {
  %3 = alloca i64, align 8
  %4 = alloca ptr, align 8
  %5 = alloca i32, align 4
  %6 = alloca ptr, align 8
  %7 = alloca i64, align 8
  store ptr %0, ptr %4, align 8
  store i32 %1, ptr %5, align 4
  %8 = load ptr, ptr %4, align 8
  %9 = icmp eq ptr %8, null
  br i1 %9, label %13, label %10

10:                                               ; preds = %2
  %11 = load i32, ptr %5, align 4
  %12 = icmp sle i32 %11, 0
  br i1 %12, label %13, label %14

13:                                               ; preds = %10, %2
  store i64 0, ptr %3, align 8
  br label %70

14:                                               ; preds = %10
  %15 = load ptr, ptr %4, align 8
  %16 = call i64 @strlen(ptr noundef %15) #9
  store i64 %16, ptr %7, align 8
  %17 = load i32, ptr %5, align 4
  %18 = load i64, ptr %7, align 8
  %19 = add i64 %18, 1
  %20 = trunc i64 %19 to i32
  %21 = icmp sgt i32 %17, %20
  br i1 %21, label %22, label %24

22:                                               ; preds = %14
  %23 = load i64, ptr %7, align 8
  store i64 %23, ptr %3, align 8
  br label %70

24:                                               ; preds = %14
  %25 = load ptr, ptr %4, align 8
  %26 = load i32, ptr %5, align 4
  %27 = add nsw i32 %26, -1
  store i32 %27, ptr %5, align 4
  %28 = sext i32 %27 to i64
  %29 = getelementptr inbounds i8, ptr %25, i64 %28
  store ptr %29, ptr %6, align 8
  br label %30

30:                                               ; preds = %64, %24
  %31 = load ptr, ptr %6, align 8
  %32 = load i8, ptr %31, align 1
  %33 = icmp ne i8 %32, 0
  br i1 %33, label %34, label %36

34:                                               ; preds = %30
  %35 = load ptr, ptr %6, align 8
  store i8 0, ptr %35, align 1
  br label %36

36:                                               ; preds = %34, %30
  br label %37

37:                                               ; preds = %36
  %38 = load i32, ptr %5, align 4
  %39 = add nsw i32 %38, -1
  store i32 %39, ptr %5, align 4
  %40 = icmp sge i32 %39, 0
  br i1 %40, label %41, label %64

41:                                               ; preds = %37
  %42 = call ptr @__ctype_b_loc() #10
  %43 = load ptr, ptr %42, align 8
  %44 = load ptr, ptr %6, align 8
  %45 = getelementptr inbounds i8, ptr %44, i32 -1
  store ptr %45, ptr %6, align 8
  %46 = load i8, ptr %45, align 1
  %47 = sext i8 %46 to i32
  %48 = sext i32 %47 to i64
  %49 = getelementptr inbounds i16, ptr %43, i64 %48
  %50 = load i16, ptr %49, align 2
  %51 = zext i16 %50 to i32
  %52 = and i32 %51, 32768
  %53 = icmp ne i32 %52, 0
  br i1 %53, label %64, label %54

54:                                               ; preds = %41
  %55 = load ptr, ptr %6, align 8
  %56 = load i8, ptr %55, align 1
  %57 = sext i8 %56 to i32
  %58 = icmp ne i32 %57, 10
  br i1 %58, label %59, label %64

59:                                               ; preds = %54
  %60 = load ptr, ptr %6, align 8
  %61 = load i8, ptr %60, align 1
  %62 = sext i8 %61 to i32
  %63 = icmp ne i32 %62, 13
  br label %64

64:                                               ; preds = %59, %54, %41, %37
  %65 = phi i1 [ false, %54 ], [ false, %41 ], [ false, %37 ], [ %63, %59 ]
  br i1 %65, label %30, label %66

66:                                               ; preds = %64
  %67 = load i32, ptr %5, align 4
  %68 = add nsw i32 %67, 1
  %69 = sext i32 %68 to i64
  store i64 %69, ptr %3, align 8
  br label %70

70:                                               ; preds = %66, %22, %13
  %71 = load i64, ptr %3, align 8
  ret i64 %71
}

; Function Attrs: nounwind uwtable
define i64 @strstrip(ptr noundef %0) #0 {
  %2 = alloca i64, align 8
  %3 = alloca ptr, align 8
  store ptr %0, ptr %3, align 8
  %4 = load ptr, ptr %3, align 8
  %5 = icmp eq ptr %4, null
  br i1 %5, label %6, label %7

6:                                                ; preds = %1
  store i64 0, ptr %2, align 8
  br label %14

7:                                                ; preds = %1
  %8 = load ptr, ptr %3, align 8
  %9 = load ptr, ptr %3, align 8
  %10 = call i64 @strlen(ptr noundef %9) #9
  %11 = add i64 %10, 1
  %12 = trunc i64 %11 to i32
  %13 = call i64 @strip(ptr noundef %8, i32 noundef %12)
  store i64 %13, ptr %2, align 8
  br label %14

14:                                               ; preds = %7, %6
  %15 = load i64, ptr %2, align 8
  ret i64 %15
}