; Function Attrs: nofree nounwind memory(readwrite, inaccessiblemem: none) uwtable
define i64 @strstrip(ptr noundef %0) local_unnamed_addr #2 {
  %2 = icmp eq ptr %0, null
  br i1 %2, label %strip.exit, label %3

3:                                                ; preds = %1
  %4 = tail call i64 @strlen(ptr noundef nonnull dereferenceable(1) %0) #21
  %5 = trunc i64 %4 to i32
  %6 = icmp ugt i32 %5, 2147483646
  br i1 %6, label %strip.exit, label %7

7:                                                ; preds = %3
  %8 = and i64 %4, 2147483647
  %9 = getelementptr inbounds i8, ptr %0, i64 %8
  %.pre.i = load i8, ptr %9, align 1
  br label %10

10:                                               ; preds = %switch.early.test.i, %7
  %11 = phi i8 [ %.pre.i, %7 ], [ %20, %switch.early.test.i ]
  %.017.i = phi i32 [ %5, %7 ], [ %14, %switch.early.test.i ]
  %.016.i = phi ptr [ %9, %7 ], [ %19, %switch.early.test.i ]
  %.not.i = icmp eq i8 %11, 0
  br i1 %.not.i, label %13, label %12

12:                                               ; preds = %10
  store i8 0, ptr %.016.i, align 1
  br label %13

13:                                               ; preds = %12, %10
  %14 = add nsw i32 %.017.i, -1
  %15 = icmp sgt i32 %.017.i, 0
  br i1 %15, label %16, label %.critedge.i

16:                                               ; preds = %13
  %17 = tail call ptr @__ctype_b_loc() #22
  %18 = load ptr, ptr %17, align 8
  %19 = getelementptr inbounds i8, ptr %.016.i, i64 -1
  %20 = load i8, ptr %19, align 1
  %21 = sext i8 %20 to i64
  %22 = getelementptr inbounds i16, ptr %18, i64 %21
  %23 = load i16, ptr %22, align 2
  %.fr.i = freeze i16 %23
  %.not22.i = icmp slt i16 %.fr.i, 0
  br i1 %.not22.i, label %.critedge.i, label %switch.early.test.i

switch.early.test.i:                              ; preds = %16
  switch i8 %20, label %10 [
    i8 13, label %.critedge.i
    i8 10, label %.critedge.i
  ]

.critedge.i:                                      ; preds = %switch.early.test.i, %switch.early.test.i, %16, %13
  %.017.lcssa.i = phi i32 [ %.017.i, %switch.early.test.i ], [ %.017.i, %switch.early.test.i ], [ %.017.i, %16 ], [ 0, %13 ]
  %24 = zext nneg i32 %.017.lcssa.i to i64
  br label %strip.exit

strip.exit:                                       ; preds = %.critedge.i, %3, %1
  %.0 = phi i64 [ 0, %1 ], [ %24, %.critedge.i ], [ 0, %3 ]
  ret i64 %.0
}